; Function Attrs: mustprogress uwtable
define noundef i32 @_ZN6colvar11end_of_stepEv(ptr noundef nonnull align 8 dereferenceable(4624) %0) local_unnamed_addr #2 align 2 personality ptr @__gxx_personality_v0 {
  %2 = getelementptr inbounds i8, ptr %0, i64 368
  %3 = load ptr, ptr %2, align 8
  %4 = getelementptr inbounds i8, ptr %3, i64 161
  %5 = load i8, ptr %4, align 1
  %6 = trunc i8 %5 to i1
  br i1 %6, label %7, label %11

7:                                                ; preds = %1
  %8 = getelementptr inbounds i8, ptr %0, i64 504
  %9 = getelementptr inbounds i8, ptr %0, i64 3616
  %10 = tail call noundef nonnull align 8 dereferenceable(168) ptr @_ZN11colvarvalueaSERKS_(ptr noundef nonnull align 8 dereferenceable(168) %9, ptr noundef nonnull align 8 dereferenceable(168) %8)
  %.pre = load ptr, ptr %2, align 8
  br label %11

11:                                               ; preds = %7, %1
  %12 = phi ptr [ %.pre, %7 ], [ %3, %1 ]
  %13 = getelementptr inbounds i8, ptr %12, i64 257
  %14 = load i8, ptr %13, align 1
  %15 = trunc i8 %14 to i1
  br i1 %15, label %16, label %20

16:                                               ; preds = %11
  %17 = getelementptr inbounds i8, ptr %0, i64 2720
  %18 = getelementptr inbounds i8, ptr %0, i64 2888
  %19 = tail call noundef nonnull align 8 dereferenceable(168) ptr @_ZN11colvarvalueaSERKS_(ptr noundef nonnull align 8 dereferenceable(168) %18, ptr noundef nonnull align 8 dereferenceable(168) %17)
  br label %20

20:                                               ; preds = %16, %11
  %21 = load i64, ptr @_ZN12colvarmodule2itE, align 8
  %22 = load i64, ptr @_ZN12colvarmodule10it_restartE, align 8
  %23 = sub nsw i64 %21, %22
  %24 = getelementptr inbounds i8, ptr %0, i64 3600
  store i64 %23, ptr %24, align 8
  ret i32 0
}